; Function Attrs: mustprogress uwtable
define hidden noundef zeroext i1 @_ZN4cvc58internal6theory9datatypes27DatatypeConstructorTypeRule14computeIsConstEPNS0_11NodeManagerENS0_12NodeTemplateILb0EEE(ptr noundef readnone captures(none) %0, ptr noundef readonly captures(none) %1) local_unnamed_addr #3 align 2 personality ptr @__gxx_personality_v0 {
  %3 = alloca %"class.cvc5::internal::NodeTemplate", align 8
  %4 = load ptr, ptr %1, align 8, !tbaa !12
  %5 = getelementptr inbounds nuw i8, ptr %4, i64 8
  %6 = load i64, ptr %5, align 8
  %7 = trunc i64 %6 to i32
  %8 = and i32 %7, 1023
  %9 = icmp eq i32 %8, 1023
  %10 = select i1 %9, i32 -1, i32 %8
  %11 = tail call noundef i32 @_ZN4cvc58internal4kind10metaKindOfENS1_6Kind_tE(i32 noundef %10)
  %12 = icmp eq i32 %11, 2
  %spec.select.v.i.i = select i1 %12, i64 32, i64 24
  %spec.select.i.i = getelementptr inbounds nuw i8, ptr %4, i64 %spec.select.v.i.i
  %13 = load ptr, ptr %1, align 8, !tbaa !12
  %14 = getelementptr inbounds nuw i8, ptr %13, i64 24
  %15 = getelementptr inbounds nuw i8, ptr %13, i64 8
  %16 = load i64, ptr %15, align 8
  %17 = lshr i64 %16, 32
  %18 = and i64 %17, 67108863
  %19 = getelementptr inbounds nuw ptr, ptr %14, i64 %18
  %.not7 = icmp eq ptr %spec.select.i.i, %19
  br i1 %.not7, label %._crit_edge, label %.lr.ph

20:                                               ; preds = %.lr.ph
  %21 = getelementptr inbounds nuw i8, ptr %.sroa.04.08, i64 8
  %22 = load ptr, ptr %1, align 8, !tbaa !12
  %23 = getelementptr inbounds nuw i8, ptr %22, i64 24
  %24 = getelementptr inbounds nuw i8, ptr %22, i64 8
  %25 = load i64, ptr %24, align 8
  %26 = lshr i64 %25, 32
  %27 = and i64 %26, 67108863
  %28 = getelementptr inbounds nuw ptr, ptr %23, i64 %27
  %.not = icmp eq ptr %21, %28
  br i1 %.not, label %._crit_edge, label %.lr.ph, !llvm.loop !85

.lr.ph:                                           ; preds = %2, %20
  %.sroa.04.08 = phi ptr [ %21, %20 ], [ %spec.select.i.i, %2 ]
  call void @llvm.lifetime.start.p0(i64 8, ptr nonnull %3) #21
  call void @llvm.experimental.noalias.scope.decl(metadata !86)
  %29 = load ptr, ptr %.sroa.04.08, align 8, !tbaa !24, !noalias !86
  store ptr %29, ptr %3, align 8, !tbaa !12, !alias.scope !86
  %30 = call noundef zeroext i1 @_ZNK4cvc58internal12NodeTemplateILb0EE7isConstEv(ptr noundef nonnull align 8 dereferenceable(8) %3)
  call void @llvm.lifetime.end.p0(i64 8, ptr nonnull %3) #21
  br i1 %30, label %20, label %._crit_edge

._crit_edge:                                      ; preds = %20, %.lr.ph, %2
  %.not.lcssa = phi i1 [ true, %2 ], [ %30, %.lr.ph ], [ %30, %20 ]
  ret i1 %.not.lcssa
}